target datalayout = "e-m:e-p270:32:32-p271:32:32-p272:64:64-i64:64-i128:128-f80:128-n8:16:32:64-S128"
target triple = "x86_64-pc-linux-gnu"

%struct._object = type { %union.anon, ptr }
%union.anon = type { i64 }
%struct.anon.4 = type { i32, i32 }
%struct.staticmethod = type { %struct._object, ptr, ptr }

; Function Attrs: alwaysinline nounwind uwtable
define internal i32 @_Py_IsImmortal(ptr noundef %0) #4 {
  %2 = alloca ptr, align 8
  store ptr %0, ptr %2, align 8, !tbaa !96
  %3 = load ptr, ptr %2, align 8, !tbaa !96
  %4 = getelementptr inbounds nuw %struct._object, ptr %3, i32 0, i32 0
  %5 = getelementptr inbounds nuw %struct.anon.4, ptr %4, i32 0, i32 0
  %6 = load i32, ptr %5, align 8, !tbaa !126
  %7 = icmp slt i32 %6, 0
  %8 = zext i1 %7 to i32
  ret i32 %8
}

; Function Attrs: alwaysinline nounwind uwtable
define internal void @Py_DECREF(ptr noundef %0) #4 {
  %2 = alloca ptr, align 8
  store ptr %0, ptr %2, align 8, !tbaa !96
  %3 = load ptr, ptr %2, align 8, !tbaa !96
  %4 = call i32 @_Py_IsImmortal(ptr noundef %3)
  %5 = icmp ne i32 %4, 0
  br i1 %5, label %6, label %7

6:                                                ; preds = %1
  br label %16

7:                                                ; preds = %1
  %8 = load ptr, ptr %2, align 8, !tbaa !96
  %9 = getelementptr inbounds nuw %struct._object, ptr %8, i32 0, i32 0
  %10 = getelementptr inbounds nuw %struct.anon.4, ptr %9, i32 0, i32 0
  %11 = load i32, ptr %10, align 8, !tbaa !126
  %12 = add i32 %11, -1
  store i32 %12, ptr %10, align 8, !tbaa !126
  %13 = icmp eq i32 %12, 0
  br i1 %13, label %14, label %16

14:                                               ; preds = %7
  %15 = load ptr, ptr %2, align 8, !tbaa !96
  call void @_Py_Dealloc(ptr noundef %15)
  br label %16

16:                                               ; preds = %6, %14, %7
  ret void
}

; Function Attrs: nounwind uwtable
define internal i32 @sm_clear(ptr noundef %0) #0 {
  %2 = alloca ptr, align 8
  %3 = alloca ptr, align 8
  %4 = alloca ptr, align 8
  %5 = alloca ptr, align 8
  %6 = alloca ptr, align 8
  %7 = alloca ptr, align 8
  store ptr %0, ptr %2, align 8, !tbaa !96
  call void @llvm.lifetime.start.p0(i64 8, ptr %3) #6
  %8 = load ptr, ptr %2, align 8, !tbaa !96
  store ptr %8, ptr %3, align 8, !tbaa !4
  br label %9

9:                                                ; preds = %1
  call void @llvm.lifetime.start.p0(i64 8, ptr %4) #6
  %10 = load ptr, ptr %3, align 8, !tbaa !4
  %11 = getelementptr inbounds nuw %struct.staticmethod, ptr %10, i32 0, i32 1
  store ptr %11, ptr %4, align 8, !tbaa !154
  call void @llvm.lifetime.start.p0(i64 8, ptr %5) #6
  %12 = load ptr, ptr %4, align 8, !tbaa !154
  %13 = load ptr, ptr %12, align 8, !tbaa !96
  store ptr %13, ptr %5, align 8, !tbaa !96
  %14 = load ptr, ptr %5, align 8, !tbaa !96
  %15 = icmp ne ptr %14, null
  br i1 %15, label %16, label %19

16:                                               ; preds = %9
  %17 = load ptr, ptr %4, align 8, !tbaa !154
  store ptr null, ptr %17, align 8, !tbaa !96
  %18 = load ptr, ptr %5, align 8, !tbaa !96
  call void @Py_DECREF(ptr noundef %18)
  br label %19

19:                                               ; preds = %16, %9
  call void @llvm.lifetime.end.p0(i64 8, ptr %5) #6
  call void @llvm.lifetime.end.p0(i64 8, ptr %4) #6
  br label %20

20:                                               ; preds = %19
  br label %21

21:                                               ; preds = %20
  br label %22

22:                                               ; preds = %21
  call void @llvm.lifetime.start.p0(i64 8, ptr %6) #6
  %23 = load ptr, ptr %3, align 8, !tbaa !4
  %24 = getelementptr inbounds nuw %struct.staticmethod, ptr %23, i32 0, i32 2
  store ptr %24, ptr %6, align 8, !tbaa !154
  call void @llvm.lifetime.start.p0(i64 8, ptr %7) #6
  %25 = load ptr, ptr %6, align 8, !tbaa !154
  %26 = load ptr, ptr %25, align 8, !tbaa !96
  store ptr %26, ptr %7, align 8, !tbaa !96
  %27 = load ptr, ptr %7, align 8, !tbaa !96
  %28 = icmp ne ptr %27, null
  br i1 %28, label %29, label %32

29:                                               ; preds = %22
  %30 = load ptr, ptr %6, align 8, !tbaa !154
  store ptr null, ptr %30, align 8, !tbaa !96
  %31 = load ptr, ptr %7, align 8, !tbaa !96
  call void @Py_DECREF(ptr noundef %31)
  br label %32

32:                                               ; preds = %29, %22
  call void @llvm.lifetime.end.p0(i64 8, ptr %7) #6
  call void @llvm.lifetime.end.p0(i64 8, ptr %6) #6
  br label %33

33:                                               ; preds = %32
  br label %34

34:                                               ; preds = %33
  call void @llvm.lifetime.end.p0(i64 8, ptr %3) #6
  ret i32 0
}