; Function Attrs: nounwind uwtable
define internal noundef i32 @sm_clear(ptr noundef captures(none) %0) #0 {
  %2 = getelementptr inbounds nuw i8, ptr %0, i64 16
  %3 = load ptr, ptr %2, align 8, !tbaa !96
  %.not = icmp eq ptr %3, null
  br i1 %.not, label %Py_DECREF.exit14, label %4

4:                                                ; preds = %1
  store ptr null, ptr %2, align 8, !tbaa !96
  %5 = load i32, ptr %3, align 8, !tbaa !99
  %.not.i13 = icmp sgt i32 %5, -1
  br i1 %.not.i13, label %6, label %Py_DECREF.exit14

6:                                                ; preds = %4
  %7 = add nsw i32 %5, -1
  store i32 %7, ptr %3, align 8, !tbaa !99
  %8 = icmp eq i32 %7, 0
  br i1 %8, label %9, label %Py_DECREF.exit14

9:                                                ; preds = %6
  tail call void @_Py_Dealloc(ptr noundef nonnull %3) #8
  br label %Py_DECREF.exit14

Py_DECREF.exit14:                                 ; preds = %9, %6, %4, %1
  %10 = getelementptr inbounds nuw i8, ptr %0, i64 24
  %11 = load ptr, ptr %10, align 8, !tbaa !96
  %.not12 = icmp eq ptr %11, null
  br i1 %.not12, label %Py_DECREF.exit, label %12

12:                                               ; preds = %Py_DECREF.exit14
  store ptr null, ptr %10, align 8, !tbaa !96
  %13 = load i32, ptr %11, align 8, !tbaa !99
  %.not.i = icmp sgt i32 %13, -1
  br i1 %.not.i, label %14, label %Py_DECREF.exit

14:                                               ; preds = %12
  %15 = add nsw i32 %13, -1
  store i32 %15, ptr %11, align 8, !tbaa !99
  %16 = icmp eq i32 %15, 0
  br i1 %16, label %17, label %Py_DECREF.exit

17:                                               ; preds = %14
  tail call void @_Py_Dealloc(ptr noundef nonnull %11) #8
  br label %Py_DECREF.exit

Py_DECREF.exit:                                   ; preds = %17, %14, %12, %Py_DECREF.exit14
  ret i32 0
}